; Function Attrs: mustprogress uwtable
define dso_local void @_ZN7V3Stats7addStatERK11V3Statistic(ptr noundef nonnull align 8 dereferenceable(96) %0) local_unnamed_addr #4 align 2 {
  %2 = load ptr, ptr getelementptr inbounds nuw (i8, ptr @_ZN11StatsReport10s_allStatsE, i64 8), align 8, !tbaa !10
  %3 = load ptr, ptr getelementptr inbounds nuw (i8, ptr @_ZN11StatsReport10s_allStatsE, i64 16), align 8, !tbaa !20
  %.not.i.i = icmp eq ptr %2, %3
  br i1 %.not.i.i, label %7, label %4

4:                                                ; preds = %1
  tail call void @_ZN11V3StatisticC2ERKS_(ptr noundef nonnull align 8 dereferenceable(96) %2, ptr noundef nonnull align 8 dereferenceable(96) %0)
  %5 = load ptr, ptr getelementptr inbounds nuw (i8, ptr @_ZN11StatsReport10s_allStatsE, i64 8), align 8, !tbaa !10
  %6 = getelementptr inbounds nuw i8, ptr %5, i64 96
  store ptr %6, ptr getelementptr inbounds nuw (i8, ptr @_ZN11StatsReport10s_allStatsE, i64 8), align 8, !tbaa !10
  br label %_ZN11StatsReport7addStatERK11V3Statistic.exit

7:                                                ; preds = %1
  tail call void @_ZNSt6vectorI11V3StatisticSaIS0_EE17_M_realloc_insertIJRKS0_EEEvN9__gnu_cxx17__normal_iteratorIPS0_S2_EEDpOT_(ptr noundef nonnull align 8 dereferenceable(24) @_ZN11StatsReport10s_allStatsE, ptr %2, ptr noundef nonnull align 8 dereferenceable(96) %0)
  br label %_ZN11StatsReport7addStatERK11V3Statistic.exit

_ZN11StatsReport7addStatERK11V3Statistic.exit:    ; preds = %4, %7
  ret void
}